target datalayout = "e-m:e-p270:32:32-p271:32:32-p272:64:64-i64:64-i128:128-f80:128-n8:16:32:64-S128"
target triple = "x86_64-pc-linux-gnu"

%struct.bn_blinding_st = type { ptr, ptr, ptr, ptr, i64, i32, i64, ptr, ptr, ptr }
%struct.bignum_st = type { ptr, i32, i32, i32, i32 }

@.str = private unnamed_addr constant [32 x i8] c"../openssl/crypto/bn/bn_blind.c\00", align 1
@__func__.BN_BLINDING_invert_ex = private unnamed_addr constant [22 x i8] c"BN_BLINDING_invert_ex\00", align 1

; Function Attrs: nounwind uwtable
define i32 @BN_BLINDING_invert_ex(ptr noundef %0, ptr noundef %1, ptr noundef %2, ptr noundef %3) #0 {
  %5 = alloca i32, align 4
  %6 = alloca ptr, align 8
  %7 = alloca ptr, align 8
  %8 = alloca ptr, align 8
  %9 = alloca ptr, align 8
  %10 = alloca i32, align 4
  %11 = alloca i32, align 4
  %12 = alloca i64, align 8
  %13 = alloca i64, align 8
  %14 = alloca i64, align 8
  %15 = alloca i64, align 8
  store ptr %0, ptr %6, align 8, !tbaa !3
  store ptr %1, ptr %7, align 8, !tbaa !3
  store ptr %2, ptr %8, align 8, !tbaa !8
  store ptr %3, ptr %9, align 8, !tbaa !21
  call void @llvm.lifetime.start.p0(i64 4, ptr %10) #3
  %16 = load ptr, ptr %7, align 8, !tbaa !3
  %17 = icmp eq ptr %16, null
  br i1 %17, label %18, label %24

18:                                               ; preds = %4
  %19 = load ptr, ptr %8, align 8, !tbaa !8
  %20 = getelementptr inbounds nuw %struct.bn_blinding_st, ptr %19, i32 0, i32 1
  %21 = load ptr, ptr %20, align 8, !tbaa !16
  store ptr %21, ptr %7, align 8, !tbaa !3
  %22 = icmp eq ptr %21, null
  br i1 %22, label %23, label %24

23:                                               ; preds = %18
  call void @ERR_new()
  call void @ERR_set_debug(ptr noundef @.str, i32 noundef 173, ptr noundef @__func__.BN_BLINDING_invert_ex)
  call void (i32, i32, ptr, ...) @ERR_set_error(i32 noundef 3, i32 noundef 107, ptr noundef null)
  store i32 0, ptr %5, align 4
  store i32 1, ptr %11, align 4
  br label %116

24:                                               ; preds = %18, %4
  %25 = load ptr, ptr %8, align 8, !tbaa !8
  %26 = getelementptr inbounds nuw %struct.bn_blinding_st, ptr %25, i32 0, i32 7
  %27 = load ptr, ptr %26, align 8, !tbaa !25
  %28 = icmp ne ptr %27, null
  br i1 %28, label %29, label %105

29:                                               ; preds = %24
  %30 = load ptr, ptr %6, align 8, !tbaa !3
  %31 = getelementptr inbounds nuw %struct.bignum_st, ptr %30, i32 0, i32 2
  %32 = load i32, ptr %31, align 4, !tbaa !29
  %33 = load ptr, ptr %7, align 8, !tbaa !3
  %34 = getelementptr inbounds nuw %struct.bignum_st, ptr %33, i32 0, i32 1
  %35 = load i32, ptr %34, align 8, !tbaa !32
  %36 = icmp sge i32 %32, %35
  br i1 %36, label %37, label %95

37:                                               ; preds = %29
  call void @llvm.lifetime.start.p0(i64 8, ptr %12) #3
  call void @llvm.lifetime.start.p0(i64 8, ptr %13) #3
  %38 = load ptr, ptr %7, align 8, !tbaa !3
  %39 = getelementptr inbounds nuw %struct.bignum_st, ptr %38, i32 0, i32 1
  %40 = load i32, ptr %39, align 8, !tbaa !32
  %41 = sext i32 %40 to i64
  store i64 %41, ptr %13, align 8, !tbaa !33
  call void @llvm.lifetime.start.p0(i64 8, ptr %14) #3
  %42 = load ptr, ptr %6, align 8, !tbaa !3
  %43 = getelementptr inbounds nuw %struct.bignum_st, ptr %42, i32 0, i32 1
  %44 = load i32, ptr %43, align 8, !tbaa !32
  %45 = sext i32 %44 to i64
  store i64 %45, ptr %14, align 8, !tbaa !33
  call void @llvm.lifetime.start.p0(i64 8, ptr %15) #3
  store i64 0, ptr %12, align 8, !tbaa !33
  br label %46

46:                                               ; preds = %64, %37
  %47 = load i64, ptr %12, align 8, !tbaa !33
  %48 = load i64, ptr %13, align 8, !tbaa !33
  %49 = icmp ult i64 %47, %48
  br i1 %49, label %50, label %67

50:                                               ; preds = %46
  %51 = load i64, ptr %12, align 8, !tbaa !33
  %52 = load i64, ptr %14, align 8, !tbaa !33
  %53 = sub i64 %51, %52
  %54 = lshr i64 %53, 63
  %55 = sub i64 0, %54
  store i64 %55, ptr %15, align 8, !tbaa !33
  %56 = load i64, ptr %15, align 8, !tbaa !33
  %57 = load ptr, ptr %6, align 8, !tbaa !3
  %58 = getelementptr inbounds nuw %struct.bignum_st, ptr %57, i32 0, i32 0
  %59 = load ptr, ptr %58, align 8, !tbaa !34
  %60 = load i64, ptr %12, align 8, !tbaa !33
  %61 = getelementptr inbounds nuw i64, ptr %59, i64 %60
  %62 = load i64, ptr %61, align 8, !tbaa !33
  %63 = and i64 %62, %56
  store i64 %63, ptr %61, align 8, !tbaa !33
  br label %64

64:                                               ; preds = %50
  %65 = load i64, ptr %12, align 8, !tbaa !33
  %66 = add i64 %65, 1
  store i64 %66, ptr %12, align 8, !tbaa !33
  br label %46, !llvm.loop !35

67:                                               ; preds = %46
  %68 = load i64, ptr %13, align 8, !tbaa !33
  %69 = load i64, ptr %14, align 8, !tbaa !33
  %70 = sub i64 %68, %69
  %71 = lshr i64 %70, 63
  %72 = sub i64 0, %71
  store i64 %72, ptr %15, align 8, !tbaa !33
  %73 = load i64, ptr %13, align 8, !tbaa !33
  %74 = load i64, ptr %15, align 8, !tbaa !33
  %75 = xor i64 %74, -1
  %76 = and i64 %73, %75
  %77 = trunc i64 %76 to i32
  %78 = sext i32 %77 to i64
  %79 = load i64, ptr %14, align 8, !tbaa !33
  %80 = load i64, ptr %15, align 8, !tbaa !33
  %81 = and i64 %79, %80
  %82 = or i64 %78, %81
  %83 = trunc i64 %82 to i32
  %84 = load ptr, ptr %6, align 8, !tbaa !3
  %85 = getelementptr inbounds nuw %struct.bignum_st, ptr %84, i32 0, i32 1
  store i32 %83, ptr %85, align 8, !tbaa !32
  %86 = load i64, ptr %15, align 8, !tbaa !33
  %87 = xor i64 %86, -1
  %88 = and i64 0, %87
  %89 = load ptr, ptr %6, align 8, !tbaa !3
  %90 = getelementptr inbounds nuw %struct.bignum_st, ptr %89, i32 0, i32 4
  %91 = load i32, ptr %90, align 4, !tbaa !37
  %92 = sext i32 %91 to i64
  %93 = or i64 %92, %88
  %94 = trunc i64 %93 to i32
  store i32 %94, ptr %90, align 4, !tbaa !37
  call void @llvm.lifetime.end.p0(i64 8, ptr %15) #3
  call void @llvm.lifetime.end.p0(i64 8, ptr %14) #3
  call void @llvm.lifetime.end.p0(i64 8, ptr %13) #3
  call void @llvm.lifetime.end.p0(i64 8, ptr %12) #3
  br label %95

95:                                               ; preds = %67, %29
  %96 = load ptr, ptr %6, align 8, !tbaa !3
  %97 = load ptr, ptr %6, align 8, !tbaa !3
  %98 = load ptr, ptr %7, align 8, !tbaa !3
  %99 = load ptr, ptr %8, align 8, !tbaa !8
  %100 = getelementptr inbounds nuw %struct.bn_blinding_st, ptr %99, i32 0, i32 7
  %101 = load ptr, ptr %100, align 8, !tbaa !25
  %102 = load ptr, ptr %9, align 8, !tbaa !21
  %103 = call i32 @bn_mul_mont_fixed_top(ptr noundef %96, ptr noundef %97, ptr noundef %98, ptr noundef %101, ptr noundef %102)
  store i32 %103, ptr %10, align 4, !tbaa !23
  %104 = load ptr, ptr %6, align 8, !tbaa !3
  call void @bn_correct_top_consttime(ptr noundef %104)
  br label %114

105:                                              ; preds = %24
  %106 = load ptr, ptr %6, align 8, !tbaa !3
  %107 = load ptr, ptr %6, align 8, !tbaa !3
  %108 = load ptr, ptr %7, align 8, !tbaa !3
  %109 = load ptr, ptr %8, align 8, !tbaa !8
  %110 = getelementptr inbounds nuw %struct.bn_blinding_st, ptr %109, i32 0, i32 3
  %111 = load ptr, ptr %110, align 8, !tbaa !17
  %112 = load ptr, ptr %9, align 8, !tbaa !21
  %113 = call i32 @BN_mod_mul(ptr noundef %106, ptr noundef %107, ptr noundef %108, ptr noundef %111, ptr noundef %112)
  store i32 %113, ptr %10, align 4, !tbaa !23
  br label %114

114:                                              ; preds = %105, %95
  %115 = load i32, ptr %10, align 4, !tbaa !23
  store i32 %115, ptr %5, align 4
  store i32 1, ptr %11, align 4
  br label %116

116:                                              ; preds = %114, %23
  call void @llvm.lifetime.end.p0(i64 4, ptr %10) #3
  %117 = load i32, ptr %5, align 4
  ret i32 %117
}