; Function Attrs: nounwind uwtable
define i32 @BN_BLINDING_invert_ex(ptr noundef %0, ptr noundef %1, ptr noundef readonly captures(none) %2, ptr noundef %3) local_unnamed_addr #0 {
  %5 = icmp eq ptr %1, null
  br i1 %5, label %6, label %11

6:                                                ; preds = %4
  %7 = getelementptr inbounds nuw i8, ptr %2, i64 8
  %8 = load ptr, ptr %7, align 8, !tbaa !14
  %9 = icmp eq ptr %8, null
  br i1 %9, label %10, label %11

10:                                               ; preds = %6
  tail call void @ERR_new() #6
  tail call void @ERR_set_debug(ptr noundef nonnull @.str, i32 noundef 173, ptr noundef nonnull @__func__.BN_BLINDING_invert_ex) #6
  tail call void (i32, i32, ptr, ...) @ERR_set_error(i32 noundef 3, i32 noundef 107, ptr noundef null) #6
  br label %38

11:                                               ; preds = %6, %4
  %.036 = phi ptr [ %8, %6 ], [ %1, %4 ]
  %12 = getelementptr inbounds nuw i8, ptr %2, i64 56
  %13 = load ptr, ptr %12, align 8, !tbaa !19
  %.not = icmp eq ptr %13, null
  br i1 %.not, label %34, label %14

14:                                               ; preds = %11
  %15 = getelementptr inbounds nuw i8, ptr %0, i64 12
  %16 = load i32, ptr %15, align 4, !tbaa !22
  %17 = getelementptr inbounds nuw i8, ptr %.036, i64 8
  %18 = load i32, ptr %17, align 8, !tbaa !25
  %.not43 = icmp slt i32 %16, %18
  br i1 %.not43, label %32, label %19

19:                                               ; preds = %14
  %20 = sext i32 %18 to i64
  %21 = getelementptr inbounds nuw i8, ptr %0, i64 8
  %22 = load i32, ptr %21, align 8, !tbaa !25
  %23 = sext i32 %22 to i64
  %.not45 = icmp eq i32 %18, 0
  br i1 %.not45, label %._crit_edge, label %.lr.ph

.lr.ph:                                           ; preds = %19
  %24 = load ptr, ptr %0, align 8, !tbaa !26
  br label %25

25:                                               ; preds = %.lr.ph, %25
  %.03744 = phi i64 [ 0, %.lr.ph ], [ %30, %25 ]
  %26 = sub i64 %.03744, %23
  %27 = getelementptr inbounds nuw i64, ptr %24, i64 %.03744
  %28 = load i64, ptr %27, align 8, !tbaa !27
  %isneg = icmp slt i64 %26, 0
  %29 = select i1 %isneg, i64 %28, i64 0
  store i64 %29, ptr %27, align 8, !tbaa !27
  %30 = add nuw i64 %.03744, 1
  %exitcond.not = icmp eq i64 %30, %20
  br i1 %exitcond.not, label %._crit_edge, label %25, !llvm.loop !28

._crit_edge:                                      ; preds = %25, %19
  %31 = tail call i32 @llvm.smax.i32(i32 %18, i32 %22)
  store i32 %31, ptr %21, align 8, !tbaa !25
  br label %32

32:                                               ; preds = %._crit_edge, %14
  %33 = tail call i32 @bn_mul_mont_fixed_top(ptr noundef nonnull %0, ptr noundef nonnull %0, ptr noundef nonnull %.036, ptr noundef nonnull %13, ptr noundef %3) #6
  tail call void @bn_correct_top_consttime(ptr noundef nonnull %0) #6
  br label %38

34:                                               ; preds = %11
  %35 = getelementptr inbounds nuw i8, ptr %2, i64 24
  %36 = load ptr, ptr %35, align 8, !tbaa !15
  %37 = tail call i32 @BN_mod_mul(ptr noundef %0, ptr noundef %0, ptr noundef nonnull %.036, ptr noundef %36, ptr noundef %3) #6
  br label %38

38:                                               ; preds = %32, %34, %10
  %.0 = phi i32 [ 0, %10 ], [ %33, %32 ], [ %37, %34 ]
  ret i32 %.0
}